target datalayout = "e-m:e-p270:32:32-p271:32:32-p272:64:64-i64:64-i128:128-f80:128-n8:16:32:64-S128"
target triple = "x86_64-unknown-linux-gnu"

%class.params_ref = type { ptr }
%struct.mk_ismt2_pp = type { ptr, ptr, %class.params_ref, ptr, i32, i32, ptr }

; Function Attrs: mustprogress nounwind uwtable
define linkonce_odr hidden void @_ZN10params_refC2Ev(ptr noundef nonnull align 8 dereferenceable(8) %this) unnamed_addr #5 comdat align 2 {
entry:
  %this.addr = alloca ptr, align 8
  store ptr %this, ptr %this.addr, align 8
  %this1 = load ptr, ptr %this.addr, align 8
  %m_params = getelementptr inbounds %class.params_ref, ptr %this1, i32 0, i32 0
  store ptr null, ptr %m_params, align 8
  ret void
}

; Function Attrs: mustprogress uwtable
define hidden void @_ZN11mk_ismt2_ppC2EP3astR11ast_managerRK10params_refjjPKc(ptr noundef nonnull align 8 dereferenceable(48) %this, ptr noundef %t, ptr noundef nonnull align 8 dereferenceable(976) %m, ptr noundef nonnull align 8 dereferenceable(8) %p, i32 noundef %indent, i32 noundef %num_vars, ptr noundef %var_prefix) unnamed_addr #4 align 2 {
entry:
  %this.addr = alloca ptr, align 8
  %t.addr = alloca ptr, align 8
  %m.addr = alloca ptr, align 8
  %p.addr = alloca ptr, align 8
  %indent.addr = alloca i32, align 4
  %num_vars.addr = alloca i32, align 4
  %var_prefix.addr = alloca ptr, align 8
  store ptr %this, ptr %this.addr, align 8
  store ptr %t, ptr %t.addr, align 8
  store ptr %m, ptr %m.addr, align 8
  store ptr %p, ptr %p.addr, align 8
  store i32 %indent, ptr %indent.addr, align 4
  store i32 %num_vars, ptr %num_vars.addr, align 4
  store ptr %var_prefix, ptr %var_prefix.addr, align 8
  %this1 = load ptr, ptr %this.addr, align 8
  %m_ast = getelementptr inbounds %struct.mk_ismt2_pp, ptr %this1, i32 0, i32 0
  %0 = load ptr, ptr %t.addr, align 8
  store ptr %0, ptr %m_ast, align 8
  %m_manager = getelementptr inbounds %struct.mk_ismt2_pp, ptr %this1, i32 0, i32 1
  %1 = load ptr, ptr %m.addr, align 8
  store ptr %1, ptr %m_manager, align 8
  %m_empty = getelementptr inbounds %struct.mk_ismt2_pp, ptr %this1, i32 0, i32 2
  call void @_ZN10params_refC2Ev(ptr noundef nonnull align 8 dereferenceable(8) %m_empty)
  %m_params = getelementptr inbounds %struct.mk_ismt2_pp, ptr %this1, i32 0, i32 3
  %2 = load ptr, ptr %p.addr, align 8
  store ptr %2, ptr %m_params, align 8
  %m_indent = getelementptr inbounds %struct.mk_ismt2_pp, ptr %this1, i32 0, i32 4
  %3 = load i32, ptr %indent.addr, align 4
  store i32 %3, ptr %m_indent, align 8
  %m_num_vars = getelementptr inbounds %struct.mk_ismt2_pp, ptr %this1, i32 0, i32 5
  %4 = load i32, ptr %num_vars.addr, align 4
  store i32 %4, ptr %m_num_vars, align 4
  %m_var_prefix = getelementptr inbounds %struct.mk_ismt2_pp, ptr %this1, i32 0, i32 6
  %5 = load ptr, ptr %var_prefix.addr, align 8
  store ptr %5, ptr %m_var_prefix, align 8
  ret void
}