; Function Attrs: mustprogress nofree norecurse nosync nounwind willreturn memory(argmem: write) uwtable
define hidden void @_ZN11mk_ismt2_ppC2EP3astR11ast_managerRK10params_refjjPKc(ptr nocapture noundef nonnull writeonly align 8 dereferenceable(48) %this, ptr noundef %t, ptr noundef nonnull align 8 dereferenceable(976) %m, ptr noundef nonnull align 8 dereferenceable(8) %p, i32 noundef %indent, i32 noundef %num_vars, ptr noundef %var_prefix) unnamed_addr #8 align 2 {
entry:
  store ptr %t, ptr %this, align 8
  %m_manager = getelementptr inbounds i8, ptr %this, i64 8
  store ptr %m, ptr %m_manager, align 8
  %m_empty = getelementptr inbounds i8, ptr %this, i64 16
  store ptr null, ptr %m_empty, align 8
  %m_params = getelementptr inbounds i8, ptr %this, i64 24
  store ptr %p, ptr %m_params, align 8
  %m_indent = getelementptr inbounds i8, ptr %this, i64 32
  store i32 %indent, ptr %m_indent, align 8
  %m_num_vars = getelementptr inbounds i8, ptr %this, i64 36
  store i32 %num_vars, ptr %m_num_vars, align 4
  %m_var_prefix = getelementptr inbounds i8, ptr %this, i64 40
  store ptr %var_prefix, ptr %m_var_prefix, align 8
  ret void
}